target datalayout = "e-m:e-p270:32:32-p271:32:32-p272:64:64-i64:64-i128:128-f80:128-n8:16:32:64-S128"
target triple = "x86_64-pc-linux-gnu"

%struct.SDL_DriverWii_Context = type { ptr, ptr, i64, i32, i32, i8, i32, i8, i8, i8, i8, [22 x i8], i64, i64, i64, i8, [6 x %struct.StickCalibrationData] }
%struct.StickCalibrationData = type { i16, i16, i16, i16 }

@.str.2 = private unnamed_addr constant [35 x i8] c"Unexpected extension response type\00", align 1
@.str.3 = private unnamed_addr constant [38 x i8] c"Unexpected extension response address\00", align 1
@.str.4 = private unnamed_addr constant [34 x i8] c"Failed to read extension type: %u\00", align 1
@.str.5 = private unnamed_addr constant [55 x i8] c"Unexpected read length when reading extension type: %d\00", align 1

; Function Attrs: nounwind uwtable
define internal zeroext i1 @ParseExtensionIdentifyResponse(ptr noundef %0, ptr noundef %1) #0 {
  %3 = alloca i1, align 1
  %4 = alloca ptr, align 8
  %5 = alloca ptr, align 8
  %6 = alloca i32, align 4
  %7 = alloca i32, align 4
  %8 = alloca i8, align 1
  store ptr %0, ptr %4, align 8
  store ptr %1, ptr %5, align 8
  call void @llvm.lifetime.start.p0(i64 4, ptr %6) #6
  %9 = load ptr, ptr %4, align 8
  %10 = getelementptr inbounds nuw %struct.SDL_DriverWii_Context, ptr %9, i32 0, i32 11
  %11 = getelementptr inbounds [22 x i8], ptr %10, i64 0, i64 0
  %12 = load i8, ptr %11, align 4
  %13 = zext i8 %12 to i32
  %14 = icmp ne i32 %13, 33
  br i1 %14, label %15, label %17

15:                                               ; preds = %2
  %16 = call zeroext i1 (ptr, ...) @SDL_SetError_REAL(ptr noundef @.str.2)
  store i1 false, ptr %3, align 1
  store i32 1, ptr %7, align 4
  br label %95

17:                                               ; preds = %2
  %18 = load ptr, ptr %4, align 8
  %19 = getelementptr inbounds nuw %struct.SDL_DriverWii_Context, ptr %18, i32 0, i32 11
  %20 = getelementptr inbounds [22 x i8], ptr %19, i64 0, i64 4
  %21 = load i8, ptr %20, align 4
  %22 = zext i8 %21 to i32
  %23 = icmp ne i32 %22, 0
  br i1 %23, label %31, label %24

24:                                               ; preds = %17
  %25 = load ptr, ptr %4, align 8
  %26 = getelementptr inbounds nuw %struct.SDL_DriverWii_Context, ptr %25, i32 0, i32 11
  %27 = getelementptr inbounds [22 x i8], ptr %26, i64 0, i64 5
  %28 = load i8, ptr %27, align 1
  %29 = zext i8 %28 to i32
  %30 = icmp ne i32 %29, 254
  br i1 %30, label %31, label %33

31:                                               ; preds = %24, %17
  %32 = call zeroext i1 (ptr, ...) @SDL_SetError_REAL(ptr noundef @.str.3)
  store i1 false, ptr %3, align 1
  store i32 1, ptr %7, align 4
  br label %95

33:                                               ; preds = %24
  %34 = load ptr, ptr %4, align 8
  %35 = getelementptr inbounds nuw %struct.SDL_DriverWii_Context, ptr %34, i32 0, i32 11
  %36 = getelementptr inbounds [22 x i8], ptr %35, i64 0, i64 3
  %37 = load i8, ptr %36, align 1
  %38 = zext i8 %37 to i32
  %39 = icmp ne i32 %38, 16
  br i1 %39, label %40, label %71

40:                                               ; preds = %33
  call void @llvm.lifetime.start.p0(i64 1, ptr %8) #6
  %41 = load ptr, ptr %4, align 8
  %42 = getelementptr inbounds nuw %struct.SDL_DriverWii_Context, ptr %41, i32 0, i32 11
  %43 = getelementptr inbounds [22 x i8], ptr %42, i64 0, i64 3
  %44 = load i8, ptr %43, align 1
  %45 = zext i8 %44 to i32
  %46 = and i32 %45, 15
  %47 = trunc i32 %46 to i8
  store i8 %47, ptr %8, align 1
  %48 = load i8, ptr %8, align 1
  %49 = zext i8 %48 to i32
  %50 = icmp eq i32 %49, 7
  br i1 %50, label %51, label %53

51:                                               ; preds = %40
  %52 = load ptr, ptr %5, align 8
  store i16 11822, ptr %52, align 2
  store i1 true, ptr %3, align 1
  store i32 1, ptr %7, align 4
  br label %70

53:                                               ; preds = %40
  %54 = load i8, ptr %8, align 1
  %55 = icmp ne i8 %54, 0
  br i1 %55, label %56, label %60

56:                                               ; preds = %53
  %57 = load i8, ptr %8, align 1
  %58 = zext i8 %57 to i32
  %59 = call zeroext i1 (ptr, ...) @SDL_SetError_REAL(ptr noundef @.str.4, i32 noundef %58)
  br label %69

60:                                               ; preds = %53
  %61 = load ptr, ptr %4, align 8
  %62 = getelementptr inbounds nuw %struct.SDL_DriverWii_Context, ptr %61, i32 0, i32 11
  %63 = getelementptr inbounds [22 x i8], ptr %62, i64 0, i64 3
  %64 = load i8, ptr %63, align 1
  %65 = zext i8 %64 to i32
  %66 = ashr i32 %65, 4
  %67 = add nsw i32 %66, 1
  %68 = call zeroext i1 (ptr, ...) @SDL_SetError_REAL(ptr noundef @.str.5, i32 noundef %67)
  br label %69

69:                                               ; preds = %60, %56
  store i1 false, ptr %3, align 1
  store i32 1, ptr %7, align 4
  br label %70

70:                                               ; preds = %69, %51
  call void @llvm.lifetime.end.p0(i64 1, ptr %8) #6
  br label %95

71:                                               ; preds = %33
  %72 = load ptr, ptr %5, align 8
  store i16 0, ptr %72, align 2
  store i32 6, ptr %6, align 4
  br label %73

73:                                               ; preds = %91, %71
  %74 = load i32, ptr %6, align 4
  %75 = icmp slt i32 %74, 8
  br i1 %75, label %76, label %94

76:                                               ; preds = %73
  %77 = load ptr, ptr %5, align 8
  %78 = load i16, ptr %77, align 2
  %79 = zext i16 %78 to i32
  %80 = shl i32 %79, 8
  %81 = load ptr, ptr %4, align 8
  %82 = getelementptr inbounds nuw %struct.SDL_DriverWii_Context, ptr %81, i32 0, i32 11
  %83 = load i32, ptr %6, align 4
  %84 = sext i32 %83 to i64
  %85 = getelementptr inbounds [22 x i8], ptr %82, i64 0, i64 %84
  %86 = load i8, ptr %85, align 1
  %87 = zext i8 %86 to i32
  %88 = or i32 %80, %87
  %89 = trunc i32 %88 to i16
  %90 = load ptr, ptr %5, align 8
  store i16 %89, ptr %90, align 2
  br label %91

91:                                               ; preds = %76
  %92 = load i32, ptr %6, align 4
  %93 = add nsw i32 %92, 1
  store i32 %93, ptr %6, align 4
  br label %73, !llvm.loop !8

94:                                               ; preds = %73
  store i1 true, ptr %3, align 1
  store i32 1, ptr %7, align 4
  br label %95

95:                                               ; preds = %94, %70, %31, %15
  call void @llvm.lifetime.end.p0(i64 4, ptr %6) #6
  %96 = load i1, ptr %3, align 1
  ret i1 %96
}