; Function Attrs: nounwind uwtable
define internal fastcc noundef zeroext i1 @ParseExtensionIdentifyResponse(ptr noundef readonly captures(none) %0, ptr noundef nonnull writeonly captures(none) %1) unnamed_addr #0 {
  %3 = getelementptr inbounds nuw i8, ptr %0, i64 44
  %4 = load i8, ptr %3, align 4
  %.not = icmp eq i8 %4, 33
  br i1 %.not, label %7, label %5

5:                                                ; preds = %2
  %6 = tail call zeroext i1 (ptr, ...) @SDL_SetError_REAL(ptr noundef nonnull @.str.2) #7
  br label %.loopexit

7:                                                ; preds = %2
  %8 = getelementptr inbounds nuw i8, ptr %0, i64 48
  %9 = load i8, ptr %8, align 4
  %.not20 = icmp eq i8 %9, 0
  br i1 %.not20, label %10, label %13

10:                                               ; preds = %7
  %11 = getelementptr inbounds nuw i8, ptr %0, i64 49
  %12 = load i8, ptr %11, align 1
  %.not21 = icmp eq i8 %12, -2
  br i1 %.not21, label %15, label %13

13:                                               ; preds = %10, %7
  %14 = tail call zeroext i1 (ptr, ...) @SDL_SetError_REAL(ptr noundef nonnull @.str.3) #7
  br label %.loopexit

15:                                               ; preds = %10
  %16 = getelementptr inbounds nuw i8, ptr %0, i64 47
  %17 = load i8, ptr %16, align 1
  %.not22 = icmp eq i8 %17, 16
  br i1 %.not22, label %28, label %18

18:                                               ; preds = %15
  %19 = and i8 %17, 15
  switch i8 %19, label %21 [
    i8 7, label %20
    i8 0, label %24
  ]

20:                                               ; preds = %18
  store i16 11822, ptr %1, align 2
  br label %.loopexit

21:                                               ; preds = %18
  %22 = zext nneg i8 %19 to i32
  %23 = tail call zeroext i1 (ptr, ...) @SDL_SetError_REAL(ptr noundef nonnull @.str.4, i32 noundef %22) #7
  br label %.loopexit

24:                                               ; preds = %18
  %25 = lshr exact i8 %17, 4
  %narrow = add nuw nsw i8 %25, 1
  %26 = zext nneg i8 %narrow to i32
  %27 = tail call zeroext i1 (ptr, ...) @SDL_SetError_REAL(ptr noundef nonnull @.str.5, i32 noundef %26) #7
  br label %.loopexit

28:                                               ; preds = %15
  store i16 0, ptr %1, align 2
  br label %29

29:                                               ; preds = %28, %29
  %indvars.iv = phi i64 [ 6, %28 ], [ %indvars.iv.next, %29 ]
  %30 = phi i16 [ 0, %28 ], [ %35, %29 ]
  %31 = shl i16 %30, 8
  %32 = getelementptr inbounds nuw [22 x i8], ptr %3, i64 0, i64 %indvars.iv
  %33 = load i8, ptr %32, align 1
  %34 = zext i8 %33 to i16
  %35 = or disjoint i16 %31, %34
  store i16 %35, ptr %1, align 2
  %indvars.iv.next = add nuw nsw i64 %indvars.iv, 1
  %exitcond.not = icmp eq i64 %indvars.iv.next, 8
  br i1 %exitcond.not, label %.loopexit, label %29, !llvm.loop !12

.loopexit:                                        ; preds = %29, %20, %24, %21, %13, %5
  %.0 = phi i1 [ false, %5 ], [ false, %13 ], [ false, %21 ], [ false, %24 ], [ true, %20 ], [ true, %29 ]
  ret i1 %.0
}